(lp0
(lp1
S'Matti Eiden'
p2
aS'Making sure google auth still works.'
p3
aS'10/02/10 11:51:24'
p4
aS'snaipperi@gmail.com'
p5
aa(lp6
S'Matti Eiden'
p7
aS'Making sure yahoo auth still works.'
p8
aS'10/02/10 11:51:54'
p9
aS'snaipperi@yahoo.com'
p10
aa.