(lp0
(S'Norei'
p1
VI doubt that it would be a good blanket though.. I bet it's noisy..
p2
S'12/09/08 01:33:08'
p3
tp4
a(S'Matti'
p5
VSPAM FILTER yay o.o
p6
S'12/09/08 01:59:32'
p7
tp8
a(S'Norei'
p9
VThis is one hell of a kite!
p10
S'12/09/08 01:00:25'
p11
tp12
a.